ARM GAS  C:\Users\George\AppData\Local\Temp\ccPBpLza.s 			page 1


   1              		.syntax unified
   2              		.cpu cortex-m3
   3              		.fpu softvfp
   4              		.eabi_attribute 20, 1
   5              		.eabi_attribute 21, 1
   6              		.eabi_attribute 23, 3
   7              		.eabi_attribute 24, 1
   8              		.eabi_attribute 25, 1
   9              		.eabi_attribute 26, 1
  10              		.eabi_attribute 30, 2
  11              		.eabi_attribute 34, 1
  12              		.eabi_attribute 18, 4
  13              		.thumb
  14              		.file	"stats.c"
  15              		.section	.text.stats_init,"ax",%progbits
  16              		.align	2
  17              		.global	stats_init
  18              		.thumb
  19              		.thumb_func
  20              		.type	stats_init, %function
  21              	stats_init:
  22              		@ args = 0, pretend = 0, frame = 0
  23              		@ frame_needed = 0, uses_anonymous_args = 0
  24              		@ link register save eliminated.
  25 0000 7047     		bx	lr
  26              		.size	stats_init, .-stats_init
  27 0002 00BF     		.section	.text.stats_display_proto,"ax",%progbits
  28              		.align	2
  29              		.global	stats_display_proto
  30              		.thumb
  31              		.thumb_func
  32              		.type	stats_display_proto, %function
  33              	stats_display_proto:
  34              		@ args = 0, pretend = 0, frame = 0
  35              		@ frame_needed = 0, uses_anonymous_args = 0
  36 0000 10B5     		push	{r4, lr}
  37 0002 0446     		mov	r4, r0
  38 0004 1A48     		ldr	r0, .L3
  39 0006 FFF7FEFF 		bl	debugPrintf
  40 000a 2188     		ldrh	r1, [r4]
  41 000c 1948     		ldr	r0, .L3+4
  42 000e FFF7FEFF 		bl	debugPrintf
  43 0012 6188     		ldrh	r1, [r4, #2]
  44 0014 1848     		ldr	r0, .L3+8
  45 0016 FFF7FEFF 		bl	debugPrintf
  46 001a A188     		ldrh	r1, [r4, #4]
  47 001c 1748     		ldr	r0, .L3+12
  48 001e FFF7FEFF 		bl	debugPrintf
  49 0022 E188     		ldrh	r1, [r4, #6]
  50 0024 1648     		ldr	r0, .L3+16
  51 0026 FFF7FEFF 		bl	debugPrintf
  52 002a 2189     		ldrh	r1, [r4, #8]
  53 002c 1548     		ldr	r0, .L3+20
  54 002e FFF7FEFF 		bl	debugPrintf
  55 0032 6189     		ldrh	r1, [r4, #10]
  56 0034 1448     		ldr	r0, .L3+24
  57 0036 FFF7FEFF 		bl	debugPrintf
ARM GAS  C:\Users\George\AppData\Local\Temp\ccPBpLza.s 			page 2


  58 003a A189     		ldrh	r1, [r4, #12]
  59 003c 1348     		ldr	r0, .L3+28
  60 003e FFF7FEFF 		bl	debugPrintf
  61 0042 E189     		ldrh	r1, [r4, #14]
  62 0044 1248     		ldr	r0, .L3+32
  63 0046 FFF7FEFF 		bl	debugPrintf
  64 004a 218A     		ldrh	r1, [r4, #16]
  65 004c 1148     		ldr	r0, .L3+36
  66 004e FFF7FEFF 		bl	debugPrintf
  67 0052 618A     		ldrh	r1, [r4, #18]
  68 0054 1048     		ldr	r0, .L3+40
  69 0056 FFF7FEFF 		bl	debugPrintf
  70 005a A18A     		ldrh	r1, [r4, #20]
  71 005c 0F48     		ldr	r0, .L3+44
  72 005e FFF7FEFF 		bl	debugPrintf
  73 0062 E18A     		ldrh	r1, [r4, #22]
  74 0064 0E48     		ldr	r0, .L3+48
  75 0066 BDE81040 		pop	{r4, lr}
  76 006a FFF7FEBF 		b	debugPrintf
  77              	.L4:
  78 006e 00BF     		.align	2
  79              	.L3:
  80 0070 00000000 		.word	.LC11
  81 0074 08000000 		.word	.LC12
  82 0078 14000000 		.word	.LC13
  83 007c 20000000 		.word	.LC14
  84 0080 2C000000 		.word	.LC15
  85 0084 38000000 		.word	.LC16
  86 0088 48000000 		.word	.LC17
  87 008c 58000000 		.word	.LC18
  88 0090 68000000 		.word	.LC19
  89 0094 78000000 		.word	.LC20
  90 0098 88000000 		.word	.LC21
  91 009c 98000000 		.word	.LC22
  92 00a0 A4000000 		.word	.LC23
  93              		.size	stats_display_proto, .-stats_display_proto
  94              		.section	.text.stats_display_igmp,"ax",%progbits
  95              		.align	2
  96              		.global	stats_display_igmp
  97              		.thumb
  98              		.thumb_func
  99              		.type	stats_display_igmp, %function
 100              	stats_display_igmp:
 101              		@ args = 0, pretend = 0, frame = 0
 102              		@ frame_needed = 0, uses_anonymous_args = 0
 103 0000 10B5     		push	{r4, lr}
 104 0002 0446     		mov	r4, r0
 105 0004 1E48     		ldr	r0, .L6
 106 0006 FFF7FEFF 		bl	debugPrintf
 107 000a 2188     		ldrh	r1, [r4]
 108 000c 1D48     		ldr	r0, .L6+4
 109 000e FFF7FEFF 		bl	debugPrintf
 110 0012 6188     		ldrh	r1, [r4, #2]
 111 0014 1C48     		ldr	r0, .L6+8
 112 0016 FFF7FEFF 		bl	debugPrintf
 113 001a A188     		ldrh	r1, [r4, #4]
 114 001c 1B48     		ldr	r0, .L6+12
ARM GAS  C:\Users\George\AppData\Local\Temp\ccPBpLza.s 			page 3


 115 001e FFF7FEFF 		bl	debugPrintf
 116 0022 E188     		ldrh	r1, [r4, #6]
 117 0024 1A48     		ldr	r0, .L6+16
 118 0026 FFF7FEFF 		bl	debugPrintf
 119 002a 2189     		ldrh	r1, [r4, #8]
 120 002c 1948     		ldr	r0, .L6+20
 121 002e FFF7FEFF 		bl	debugPrintf
 122 0032 6189     		ldrh	r1, [r4, #10]
 123 0034 1848     		ldr	r0, .L6+24
 124 0036 FFF7FEFF 		bl	debugPrintf
 125 003a A189     		ldrh	r1, [r4, #12]
 126 003c 1748     		ldr	r0, .L6+28
 127 003e FFF7FEFF 		bl	debugPrintf
 128 0042 E189     		ldrh	r1, [r4, #14]
 129 0044 1648     		ldr	r0, .L6+32
 130 0046 FFF7FEFF 		bl	debugPrintf
 131 004a 218A     		ldrh	r1, [r4, #16]
 132 004c 1548     		ldr	r0, .L6+36
 133 004e FFF7FEFF 		bl	debugPrintf
 134 0052 618A     		ldrh	r1, [r4, #18]
 135 0054 1448     		ldr	r0, .L6+40
 136 0056 FFF7FEFF 		bl	debugPrintf
 137 005a A18A     		ldrh	r1, [r4, #20]
 138 005c 1348     		ldr	r0, .L6+44
 139 005e FFF7FEFF 		bl	debugPrintf
 140 0062 E18A     		ldrh	r1, [r4, #22]
 141 0064 1248     		ldr	r0, .L6+48
 142 0066 FFF7FEFF 		bl	debugPrintf
 143 006a 218B     		ldrh	r1, [r4, #24]
 144 006c 1148     		ldr	r0, .L6+52
 145 006e FFF7FEFF 		bl	debugPrintf
 146 0072 618B     		ldrh	r1, [r4, #26]
 147 0074 1048     		ldr	r0, .L6+56
 148 0076 BDE81040 		pop	{r4, lr}
 149 007a FFF7FEBF 		b	debugPrintf
 150              	.L7:
 151 007e 00BF     		.align	2
 152              	.L6:
 153 0080 B4000000 		.word	.LC24
 154 0084 08000000 		.word	.LC12
 155 0088 14000000 		.word	.LC13
 156 008c 2C000000 		.word	.LC15
 157 0090 38000000 		.word	.LC16
 158 0094 48000000 		.word	.LC17
 159 0098 58000000 		.word	.LC18
 160 009c 78000000 		.word	.LC20
 161 00a0 BC000000 		.word	.LC25
 162 00a4 CC000000 		.word	.LC26
 163 00a8 DC000000 		.word	.LC27
 164 00ac F0000000 		.word	.LC28
 165 00b0 04010000 		.word	.LC29
 166 00b4 14010000 		.word	.LC30
 167 00b8 24010000 		.word	.LC31
 168              		.size	stats_display_igmp, .-stats_display_igmp
 169              		.section	.text.stats_display_mem,"ax",%progbits
 170              		.align	2
 171              		.global	stats_display_mem
ARM GAS  C:\Users\George\AppData\Local\Temp\ccPBpLza.s 			page 4


 172              		.thumb
 173              		.thumb_func
 174              		.type	stats_display_mem, %function
 175              	stats_display_mem:
 176              		@ args = 0, pretend = 0, frame = 0
 177              		@ frame_needed = 0, uses_anonymous_args = 0
 178 0000 10B5     		push	{r4, lr}
 179 0002 0446     		mov	r4, r0
 180 0004 0A48     		ldr	r0, .L9
 181 0006 FFF7FEFF 		bl	debugPrintf
 182 000a 2188     		ldrh	r1, [r4]
 183 000c 0948     		ldr	r0, .L9+4
 184 000e FFF7FEFF 		bl	debugPrintf
 185 0012 6188     		ldrh	r1, [r4, #2]
 186 0014 0848     		ldr	r0, .L9+8
 187 0016 FFF7FEFF 		bl	debugPrintf
 188 001a A188     		ldrh	r1, [r4, #4]
 189 001c 0748     		ldr	r0, .L9+12
 190 001e FFF7FEFF 		bl	debugPrintf
 191 0022 E188     		ldrh	r1, [r4, #6]
 192 0024 0648     		ldr	r0, .L9+16
 193 0026 BDE81040 		pop	{r4, lr}
 194 002a FFF7FEBF 		b	debugPrintf
 195              	.L10:
 196 002e 00BF     		.align	2
 197              	.L9:
 198 0030 38010000 		.word	.LC32
 199 0034 44010000 		.word	.LC33
 200 0038 50010000 		.word	.LC34
 201 003c 5C010000 		.word	.LC35
 202 0040 68010000 		.word	.LC36
 203              		.size	stats_display_mem, .-stats_display_mem
 204              		.section	.text.stats_display_memp,"ax",%progbits
 205              		.align	2
 206              		.global	stats_display_memp
 207              		.thumb
 208              		.thumb_func
 209              		.type	stats_display_memp, %function
 210              	stats_display_memp:
 211              		@ args = 0, pretend = 0, frame = 40
 212              		@ frame_needed = 0, uses_anonymous_args = 0
 213              		@ link register save eliminated.
 214 0000 F0B4     		push	{r4, r5, r6, r7}
 215 0002 0E4D     		ldr	r5, .L15
 216 0004 8AB0     		sub	sp, sp, #40
 217 0006 6C46     		mov	r4, sp
 218 0008 0E46     		mov	r6, r1
 219 000a 0746     		mov	r7, r0
 220 000c 0FCD     		ldmia	r5!, {r0, r1, r2, r3}
 221 000e 0FC4     		stmia	r4!, {r0, r1, r2, r3}
 222 0010 0FCD     		ldmia	r5!, {r0, r1, r2, r3}
 223 0012 0FC4     		stmia	r4!, {r0, r1, r2, r3}
 224 0014 95E80300 		ldmia	r5, {r0, r1}
 225 0018 092E     		cmp	r6, #9
 226 001a 84E80300 		stmia	r4, {r0, r1}
 227 001e 02DD     		ble	.L14
 228 0020 0AB0     		add	sp, sp, #40
ARM GAS  C:\Users\George\AppData\Local\Temp\ccPBpLza.s 			page 5


 229              		@ sp needed
 230 0022 F0BC     		pop	{r4, r5, r6, r7}
 231 0024 7047     		bx	lr
 232              	.L14:
 233 0026 0AAB     		add	r3, sp, #40
 234 0028 03EB8606 		add	r6, r3, r6, lsl #2
 235 002c 56F8281C 		ldr	r1, [r6, #-40]
 236 0030 3846     		mov	r0, r7
 237 0032 0AB0     		add	sp, sp, #40
 238              		@ sp needed
 239 0034 F0BC     		pop	{r4, r5, r6, r7}
 240 0036 FFF7FEBF 		b	stats_display_mem
 241              	.L16:
 242 003a 00BF     		.align	2
 243              	.L15:
 244 003c 00000000 		.word	.LANCHOR0
 245              		.size	stats_display_memp, .-stats_display_memp
 246              		.section	.text.stats_display,"ax",%progbits
 247              		.align	2
 248              		.global	stats_display
 249              		.thumb
 250              		.thumb_func
 251              		.type	stats_display, %function
 252              	stats_display:
 253              		@ args = 0, pretend = 0, frame = 0
 254              		@ frame_needed = 0, uses_anonymous_args = 0
 255 0000 38B5     		push	{r3, r4, r5, lr}
 256 0002 1748     		ldr	r0, .L20
 257 0004 1749     		ldr	r1, .L20+4
 258 0006 FFF7FEFF 		bl	stats_display_proto
 259 000a 1748     		ldr	r0, .L20+8
 260 000c 1749     		ldr	r1, .L20+12
 261 000e FFF7FEFF 		bl	stats_display_proto
 262 0012 1748     		ldr	r0, .L20+16
 263 0014 1749     		ldr	r1, .L20+20
 264 0016 FFF7FEFF 		bl	stats_display_proto
 265 001a 1749     		ldr	r1, .L20+24
 266 001c 1748     		ldr	r0, .L20+28
 267 001e FFF7FEFF 		bl	stats_display_proto
 268 0022 1748     		ldr	r0, .L20+32
 269 0024 FFF7FEFF 		bl	stats_display_igmp
 270 0028 1648     		ldr	r0, .L20+36
 271 002a 1749     		ldr	r1, .L20+40
 272 002c FFF7FEFF 		bl	stats_display_proto
 273 0030 1648     		ldr	r0, .L20+44
 274 0032 1749     		ldr	r1, .L20+48
 275 0034 FFF7FEFF 		bl	stats_display_proto
 276 0038 1648     		ldr	r0, .L20+52
 277 003a 1749     		ldr	r1, .L20+56
 278 003c FFF7FEFF 		bl	stats_display_proto
 279 0040 1648     		ldr	r0, .L20+60
 280 0042 1749     		ldr	r1, .L20+64
 281 0044 FFF7FEFF 		bl	stats_display_mem
 282 0048 164D     		ldr	r5, .L20+68
 283 004a 0024     		movs	r4, #0
 284              	.L19:
 285 004c 2846     		mov	r0, r5
ARM GAS  C:\Users\George\AppData\Local\Temp\ccPBpLza.s 			page 6


 286 004e 2146     		mov	r1, r4
 287 0050 0134     		adds	r4, r4, #1
 288 0052 FFF7FEFF 		bl	stats_display_memp
 289 0056 0A2C     		cmp	r4, #10
 290 0058 05F10A05 		add	r5, r5, #10
 291 005c F6D1     		bne	.L19
 292 005e 38BD     		pop	{r3, r4, r5, pc}
 293              	.L21:
 294              		.align	2
 295              	.L20:
 296 0060 00000000 		.word	lwip_stats
 297 0064 74010000 		.word	.LC38
 298 0068 18000000 		.word	lwip_stats+24
 299 006c 7C010000 		.word	.LC39
 300 0070 30000000 		.word	lwip_stats+48
 301 0074 84010000 		.word	.LC40
 302 0078 8C010000 		.word	.LC41
 303 007c 48000000 		.word	lwip_stats+72
 304 0080 78000000 		.word	lwip_stats+120
 305 0084 60000000 		.word	lwip_stats+96
 306 0088 90010000 		.word	.LC42
 307 008c 94000000 		.word	lwip_stats+148
 308 0090 98010000 		.word	.LC43
 309 0094 AC000000 		.word	lwip_stats+172
 310 0098 9C010000 		.word	.LC44
 311 009c C4000000 		.word	lwip_stats+196
 312 00a0 A0010000 		.word	.LC45
 313 00a4 CE000000 		.word	lwip_stats+206
 314              		.size	stats_display, .-stats_display
 315              		.comm	lwip_stats,306,4
 316              		.section	.rodata
 317              		.align	2
 318              		.set	.LANCHOR0,. + 0
 319              	.LC37:
 320 0000 A8010000 		.word	.LC0
 321 0004 B0010000 		.word	.LC1
 322 0008 B8010000 		.word	.LC2
 323 000c C8010000 		.word	.LC3
 324 0010 D0010000 		.word	.LC4
 325 0014 DC010000 		.word	.LC5
 326 0018 E8010000 		.word	.LC6
 327 001c F4010000 		.word	.LC7
 328 0020 00020000 		.word	.LC8
 329 0024 10020000 		.word	.LC9
 330              		.section	.rodata.str1.4,"aMS",%progbits,1
 331              		.align	2
 332              	.LC11:
 333 0000 0A25730A 		.ascii	"\012%s\012\011\000"
 333      0900
 334 0006 0000     		.space	2
 335              	.LC12:
 336 0008 786D6974 		.ascii	"xmit: %hu\012\011\000"
 336      3A202568 
 336      750A0900 
 337              	.LC13:
 338 0014 72656376 		.ascii	"recv: %hu\012\011\000"
 338      3A202568 
ARM GAS  C:\Users\George\AppData\Local\Temp\ccPBpLza.s 			page 7


 338      750A0900 
 339              	.LC14:
 340 0020 66773A20 		.ascii	"fw: %hu\012\011\000"
 340      2568750A 
 340      0900
 341 002a 0000     		.space	2
 342              	.LC15:
 343 002c 64726F70 		.ascii	"drop: %hu\012\011\000"
 343      3A202568 
 343      750A0900 
 344              	.LC16:
 345 0038 63686B65 		.ascii	"chkerr: %hu\012\011\000"
 345      72723A20 
 345      2568750A 
 345      0900
 346 0046 0000     		.space	2
 347              	.LC17:
 348 0048 6C656E65 		.ascii	"lenerr: %hu\012\011\000"
 348      72723A20 
 348      2568750A 
 348      0900
 349 0056 0000     		.space	2
 350              	.LC18:
 351 0058 6D656D65 		.ascii	"memerr: %hu\012\011\000"
 351      72723A20 
 351      2568750A 
 351      0900
 352 0066 0000     		.space	2
 353              	.LC19:
 354 0068 72746572 		.ascii	"rterr: %hu\012\011\000"
 354      723A2025 
 354      68750A09 
 354      00
 355 0075 000000   		.space	3
 356              	.LC20:
 357 0078 70726F74 		.ascii	"proterr: %hu\012\011\000"
 357      6572723A 
 357      20256875 
 357      0A0900
 358 0087 00       		.space	1
 359              	.LC21:
 360 0088 6F707465 		.ascii	"opterr: %hu\012\011\000"
 360      72723A20 
 360      2568750A 
 360      0900
 361 0096 0000     		.space	2
 362              	.LC22:
 363 0098 6572723A 		.ascii	"err: %hu\012\011\000"
 363      20256875 
 363      0A0900
 364 00a3 00       		.space	1
 365              	.LC23:
 366 00a4 63616368 		.ascii	"cachehit: %hu\012\000"
 366      65686974 
 366      3A202568 
 366      750A00
 367 00b3 00       		.space	1
ARM GAS  C:\Users\George\AppData\Local\Temp\ccPBpLza.s 			page 8


 368              	.LC24:
 369 00b4 0A49474D 		.ascii	"\012IGMP\012\011\000"
 369      500A0900 
 370              	.LC25:
 371 00bc 72785F76 		.ascii	"rx_v1: %hu\012\011\000"
 371      313A2025 
 371      68750A09 
 371      00
 372 00c9 000000   		.space	3
 373              	.LC26:
 374 00cc 72785F67 		.ascii	"rx_group: %hu\012\000"
 374      726F7570 
 374      3A202568 
 374      750A00
 375 00db 00       		.space	1
 376              	.LC27:
 377 00dc 72785F67 		.ascii	"rx_general: %hu\012\000"
 377      656E6572 
 377      616C3A20 
 377      2568750A 
 377      00
 378 00ed 000000   		.space	3
 379              	.LC28:
 380 00f0 72785F72 		.ascii	"rx_report: %hu\012\011\000"
 380      65706F72 
 380      743A2025 
 380      68750A09 
 380      00
 381 0101 000000   		.space	3
 382              	.LC29:
 383 0104 74785F6A 		.ascii	"tx_join: %hu\012\011\000"
 383      6F696E3A 
 383      20256875 
 383      0A0900
 384 0113 00       		.space	1
 385              	.LC30:
 386 0114 74785F6C 		.ascii	"tx_leave: %hu\012\011\000"
 386      65617665 
 386      3A202568 
 386      750A0900 
 387              	.LC31:
 388 0124 74785F72 		.ascii	"tx_report: %hu\012\011\000"
 388      65706F72 
 388      743A2025 
 388      68750A09 
 388      00
 389 0135 000000   		.space	3
 390              	.LC32:
 391 0138 0A4D454D 		.ascii	"\012MEM %s\012\011\000"
 391      2025730A 
 391      0900
 392 0142 0000     		.space	2
 393              	.LC33:
 394 0144 61766169 		.ascii	"avail: %u\012\011\000"
 394      6C3A2025 
 394      750A0900 
 395              	.LC34:
ARM GAS  C:\Users\George\AppData\Local\Temp\ccPBpLza.s 			page 9


 396 0150 75736564 		.ascii	"used: %u\012\011\000"
 396      3A202575 
 396      0A0900
 397 015b 00       		.space	1
 398              	.LC35:
 399 015c 6D61783A 		.ascii	"max: %u\012\011\000"
 399      2025750A 
 399      0900
 400 0166 0000     		.space	2
 401              	.LC36:
 402 0168 6572723A 		.ascii	"err: %u\012\000"
 402      2025750A 
 402      00
 403 0171 000000   		.space	3
 404              	.LC38:
 405 0174 4C494E4B 		.ascii	"LINK\000"
 405      00
 406 0179 000000   		.space	3
 407              	.LC39:
 408 017c 45544841 		.ascii	"ETHARP\000"
 408      525000
 409 0183 00       		.space	1
 410              	.LC40:
 411 0184 49505F46 		.ascii	"IP_FRAG\000"
 411      52414700 
 412              	.LC41:
 413 018c 495000   		.ascii	"IP\000"
 414 018f 00       		.space	1
 415              	.LC42:
 416 0190 49434D50 		.ascii	"ICMP\000"
 416      00
 417 0195 000000   		.space	3
 418              	.LC43:
 419 0198 55445000 		.ascii	"UDP\000"
 420              	.LC44:
 421 019c 54435000 		.ascii	"TCP\000"
 422              	.LC45:
 423 01a0 48454150 		.ascii	"HEAP\000"
 423      00
 424 01a5 000000   		.space	3
 425              	.LC0:
 426 01a8 5544505F 		.ascii	"UDP_PCB\000"
 426      50434200 
 427              	.LC1:
 428 01b0 5443505F 		.ascii	"TCP_PCB\000"
 428      50434200 
 429              	.LC2:
 430 01b8 5443505F 		.ascii	"TCP_PCB_LISTEN\000"
 430      5043425F 
 430      4C495354 
 430      454E00
 431 01c7 00       		.space	1
 432              	.LC3:
 433 01c8 5443505F 		.ascii	"TCP_SEG\000"
 433      53454700 
 434              	.LC4:
 435 01d0 52454153 		.ascii	"REASSDATA\000"
ARM GAS  C:\Users\George\AppData\Local\Temp\ccPBpLza.s 			page 10


 435      53444154 
 435      4100
 436 01da 0000     		.space	2
 437              	.LC5:
 438 01dc 46524147 		.ascii	"FRAG_PBUF\000"
 438      5F504255 
 438      4600
 439 01e6 0000     		.space	2
 440              	.LC6:
 441 01e8 49474D50 		.ascii	"IGMP_GROUP\000"
 441      5F47524F 
 441      555000
 442 01f3 00       		.space	1
 443              	.LC7:
 444 01f4 5359535F 		.ascii	"SYS_TIMEOUT\000"
 444      54494D45 
 444      4F555400 
 445              	.LC8:
 446 0200 50425546 		.ascii	"PBUF_REF/ROM\000"
 446      5F524546 
 446      2F524F4D 
 446      00
 447 020d 000000   		.space	3
 448              	.LC9:
 449 0210 50425546 		.ascii	"PBUF_POOL\000"
 449      5F504F4F 
 449      4C00
 450 021a 0000     		.ident	"GCC: (GNU Tools for ARM Embedded Processors) 4.8.3 20140228 (release) [ARM/embedded-4_8-br
